; Function Attrs: nounwind sspstrong uwtable
define internal void @virtio_scsi_device_unrealize(ptr noundef %dev) #0 {
entry:
  %call.i = tail call ptr @object_dynamic_cast_assert(ptr noundef %dev, ptr noundef nonnull @.str.9, ptr noundef nonnull @.str.6, i32 noundef 31, ptr noundef nonnull @__func__.VIRTIO_SCSI) #13
  tail call fastcc void @virtio_scsi_reset_tmf_bh(ptr noundef %call.i)
  %bus = getelementptr inbounds nuw i8, ptr %call.i, i64 664
  %call.i3 = tail call ptr @object_dynamic_cast_assert(ptr noundef nonnull %bus, ptr noundef nonnull @.str.52, ptr noundef nonnull @.str.8, i32 noundef 316, ptr noundef nonnull @__func__.BUS) #13
  tail call void @qbus_set_hotplug_handler(ptr noundef %call.i3, ptr noundef null) #13
  tail call void @virtio_scsi_common_unrealize(ptr noundef %dev)
  ret void
}